; Function Attrs: mustprogress uwtable
define dso_local void @_ZN4Luau7CodeGen3A6413IrLoweringA6411finishBlockERKNS0_7IrBlockES5_(ptr noundef nonnull readonly align 8 captures(none) dereferenceable(1497) %0, ptr noundef nonnull readnone align 4 captures(none) dereferenceable(32) %1, ptr noundef nonnull align 4 dereferenceable(32) %2) local_unnamed_addr #0 align 2 {
  %4 = getelementptr inbounds nuw i8, ptr %0, i64 328
  %5 = load ptr, ptr %4, align 8, !tbaa !187
  %6 = getelementptr inbounds nuw i8, ptr %0, i64 336
  %7 = load ptr, ptr %6, align 8, !tbaa !187
  %8 = icmp eq ptr %5, %7
  br i1 %8, label %.loopexit, label %.loopexit.loopexit

.loopexit.loopexit:                               ; preds = %3
  %9 = getelementptr inbounds nuw i8, ptr %0, i64 16
  %10 = load ptr, ptr %9, align 8, !tbaa !64
  %11 = getelementptr inbounds nuw i8, ptr %10, i64 312
  %12 = load ptr, ptr %10, align 8, !tbaa !71
  %13 = ptrtoint ptr %2 to i64
  %14 = ptrtoint ptr %12 to i64
  %15 = sub i64 %13, %14
  %16 = lshr exact i64 %15, 5
  %17 = trunc i64 %16 to i32
  %18 = tail call { ptr, ptr } @_ZN4Luau7CodeGen12predecessorsERKNS0_7CfgInfoEj(ptr noundef nonnull align 8 dereferenceable(304) %11, i32 noundef %17)
  br label %.loopexit

.loopexit:                                        ; preds = %.loopexit.loopexit, %3
  ret void
}